target datalayout = "e-m:e-p270:32:32-p271:32:32-p272:64:64-i64:64-i128:128-f80:128-n8:16:32:64-S128"
target triple = "x86_64-pc-linux-gnu"

%class.PhaseCoalesce = type { ptr, %class.Phase, ptr }
%class.Phase = type { i32, ptr }
%class.PhaseChaitin = type <{ %class.PhaseRegAlloc, i32, i32, ptr, ptr, %class.VectorSet, %class.VectorSet, i32, i32, i32, i32, i32, [4 x i8], ptr, double, %class.LiveRangeMap, i8, [3 x i8], %"class.PhaseChaitin::Pressure", %"class.PhaseChaitin::Pressure", %"class.PhaseChaitin::Pressure", %"class.PhaseChaitin::Pressure", [4 x i8] }>
%class.PhaseRegAlloc = type { ptr, %class.Phase, ptr, i32, %class.VectorSet, ptr, i32, i32, ptr }
%class.VectorSet = type { i32, ptr, i32, ptr }
%class.LiveRangeMap = type { i32, %class.GrowableArray, %class.GrowableArray }
%class.GrowableArray = type { %class.GrowableArrayWithAllocator, %class.GrowableArrayMetadata }
%class.GrowableArrayWithAllocator = type { %class.GrowableArrayView }
%class.GrowableArrayView = type { %class.GrowableArrayBase, ptr }
%class.GrowableArrayBase = type { i32, i32 }
%class.GrowableArrayMetadata = type { i64 }
%"class.PhaseChaitin::Pressure" = type { i32, i32, i32, i32, i32 }
%class.PhaseCFG = type { %class.Phase, ptr, ptr, %class.Block_List, i32, ptr, ptr, i8, ptr, %class.Block_Array, ptr, double, ptr, ptr }
%class.Block_List = type <{ %class.Block_Array, i32, [4 x i8] }>
%class.Block_Array = type { i32, ptr, ptr }

; Function Attrs: mustprogress nounwind uwtable
define linkonce_odr hidden noundef i32 @_ZNK8PhaseCFG16number_of_blocksEv(ptr noundef nonnull align 8 dereferenceable(160) %0) #1 comdat align 2 {
  %2 = alloca ptr, align 8
  store ptr %0, ptr %2, align 8
  %3 = load ptr, ptr %2, align 8
  %4 = getelementptr inbounds %class.PhaseCFG, ptr %3, i32 0, i32 4
  %5 = load i32, ptr %4, align 8
  ret i32 %5
}

; Function Attrs: mustprogress nounwind uwtable
define hidden void @_ZN13PhaseCoalesce15coalesce_driverEv(ptr noundef nonnull align 8 dereferenceable(32) %0) #1 align 2 {
  %2 = alloca ptr, align 8
  %3 = alloca i32, align 4
  store ptr %0, ptr %2, align 8
  %4 = load ptr, ptr %2, align 8
  %5 = load ptr, ptr %4, align 8
  %6 = getelementptr inbounds ptr, ptr %5, i64 0
  %7 = load ptr, ptr %6, align 8
  call void %7(ptr noundef nonnull align 8 dereferenceable(32) %4)
  store i32 0, ptr %3, align 4
  br label %8

8:                                                ; preds = %28, %1
  %9 = load i32, ptr %3, align 4
  %10 = getelementptr inbounds %class.PhaseCoalesce, ptr %4, i32 0, i32 2
  %11 = load ptr, ptr %10, align 8
  %12 = getelementptr inbounds %class.PhaseRegAlloc, ptr %11, i32 0, i32 5
  %13 = load ptr, ptr %12, align 8
  %14 = call noundef i32 @_ZNK8PhaseCFG16number_of_blocksEv(ptr noundef nonnull align 8 dereferenceable(160) %13)
  %15 = icmp ult i32 %9, %14
  br i1 %15, label %16, label %31

16:                                               ; preds = %8
  %17 = getelementptr inbounds %class.PhaseCoalesce, ptr %4, i32 0, i32 2
  %18 = load ptr, ptr %17, align 8
  %19 = getelementptr inbounds %class.PhaseChaitin, ptr %18, i32 0, i32 13
  %20 = load ptr, ptr %19, align 8
  %21 = load i32, ptr %3, align 4
  %22 = zext i32 %21 to i64
  %23 = getelementptr inbounds ptr, ptr %20, i64 %22
  %24 = load ptr, ptr %23, align 8
  %25 = load ptr, ptr %4, align 8
  %26 = getelementptr inbounds ptr, ptr %25, i64 1
  %27 = load ptr, ptr %26, align 8
  call void %27(ptr noundef nonnull align 8 dereferenceable(32) %4, ptr noundef %24)
  br label %28

28:                                               ; preds = %16
  %29 = load i32, ptr %3, align 4
  %30 = add i32 %29, 1
  store i32 %30, ptr %3, align 4
  br label %8, !llvm.loop !8

31:                                               ; preds = %8
  ret void
}